(dp0
I1
(dp1
S'data'
p2
(lp3
S'00:651689 1 95'
p4
aS'00:694750 1 92'
p5
aS'00:784669 1 90'
p6
aS'00:784669 2 90'
p7
aS'00:862530 0 73'
p8
aS'00:989316 0 78'
p9
aS'01:032551 0 79'
p10
aS'01:032551 1 93'
p11
aS'01:116141 0 80'
p12
aS'01:116141 1 95'
p13
aS'01:339946 1 97'
p14
aS'01:423645 1 98'
p15
aS'01:467291 1 100'
p16
aS'01:623630 3 92'
p17
aS'01:708032 1 101'
p18
aS'01:708032 3 93'
p19
aS'01:783662 1 102'
p20
aS'01:783662 3 97'
p21
aS'01:908099 3 95'
p22
aS'01:950296 2 90'
p23
aS'02:039932 0 78'
p24
aS'02:039932 1 106'
p25
aS'02:117093 0 73'
p26
aS'02:117093 1 109'
p27
aS'02:239546 2 88'
p28
aS'02:284241 2 85'
p29
aS'02:333425 2 82'
p30
aS'02:384159 2 78'
p31
aS'02:384159 3 93'
p32
aS'02:467673 2 76'
p33
aS'02:557190 1 110'
p34
aS'02:641220 0 76'
p35
aS'02:641220 3 97'
p36
aS'02:718321 0 74'
p37
aS'02:718321 2 78'
p38
aS'02:842211 3 95'
p39
aS'02:884988 3 97'
p40
aS'03:074631 2 79'
p41
aS'03:118711 2 87'
p42
aS'03:118711 3 95'
p43
aS'03:201730 2 88'
p44
aS'03:251745 2 90'
p45
aS'03:374899 3 97'
p46
aS'03:418690 3 95'
p47
aS'03:467525 2 90'
p48
aS'03:467525 3 97'
p49
aS'03:566972 2 95'
p50
aS'03:566972 3 101'
p51
aS'03:675958 2 97'
p52
aS'03:675958 3 102'
p53
aS'03:750459 2 100'
p54
aS'03:801053 2 101'
p55
aS'03:852090 2 106'
p56
aS'03:902732 2 109'
p57
aS'03:902732 3 106'
p58
aS'03:985197 2 110'
p59
aS'04:142877 3 107'
p60
aS'04:185349 3 110'
p61
aS'04:236272 3 116'
p62
aS'04:285330 3 118'
p63
aS'04:375890 2 107'
p64
aS'04:375890 3 120'
p65
aS'04:453196 2 100'
p66
aS'04:453196 3 116'
p67
aS'04:535836 2 95'
p68
aS'04:535836 3 109'
p69
aS'04:619368 2 93'
p70
aS'04:619368 3 102'
p71
aS'04:701394 0 76'
p72
aS'04:701394 2 92'
p73
aS'04:701394 3 97'
p74
aS'04:819688 1 112'
p75
aS'04:819688 2 90'
p76
aS'04:819688 3 90'
p77
aS'04:935958 0 74'
p78
aS'04:935958 1 110'
p79
aS'05:325829 1 112'
p80
aS'05:369256 1 110'
p81
aS'05:592116 2 93'
p82
aS'05:652070 2 97'
p83
aS'05:652070 3 93'
p84
aS'05:718871 2 98'
p85
aS'05:785570 3 90'
p86
aS'05:820273 2 95'
p87
aS'05:870976 2 93'
p88
aS'05:925298 1 112'
p89
aS'06:083451 2 97'
p90
aS'06:165530 2 98'
p91
aS'06:206973 2 100'
p92
aS'06:206973 3 93'
p93
aS'06:291786 2 104'
p94
aS'06:341903 2 106'
p95
aS'06:341903 3 95'
p96
aS'06:424809 2 109'
p97
aS'06:475518 1 110'
p98
aS'06:475518 2 110'
p99
aS'06:558827 1 112'
p100
aS'06:558827 3 97'
p101
aS'06:641718 2 114'
p102
aS'06:641718 3 98'
p103
aS'06:725406 3 100'
p104
aS'06:775809 1 110'
p105
aS'06:824038 1 112'
p106
aS'06:824038 2 107'
p107
aS'06:824038 3 97'
p108
aS'06:941612 2 93'
p109
aS'06:941612 3 95'
p110
aS'07:025718 2 90'
p111
aS'07:114970 1 110'
p112
aS'07:158990 2 90'
p113
aS'07:210225 3 93'
p114
aS'07:331814 1 112'
p115
aS'07:331814 2 88'
p116
aS'07:409021 1 110'
p117
aS'07:460466 1 112'
p118
aS'07:460466 2 87'
p119
aS'07:557787 2 84'
p120
aS'07:591902 1 110'
p121
aS'07:591902 2 79'
p122
aS'07:591902 3 92'
p123
aS'07:709795 2 76'
p124
aS'07:709795 3 95'
p125
aS'07:793505 1 112'
p126
aS'07:883143 1 110'
p127
aS'08:065231 1 112'
p128
aS'08:110870 0 76'
p129
aS'08:160161 0 74'
p130
aS'08:160161 1 110'
p131
aS'08:243163 0 76'
p132
aS'08:243163 1 112'
p133
aS'08:243163 2 74'
p134
aS'08:360103 0 74'
p135
aS'08:360103 1 110'
p136
aS'08:551845 2 76'
p137
aS'08:633561 2 80'
p138
aS'08:677235 2 84'
p139
aS'08:726340 1 112'
p140
aS'08:726340 2 85'
p141
aS'08:726340 3 92'
p142
aS'08:842664 2 87'
p143
aS'08:893242 1 110'
p144
aS'09:052277 2 88'
p145
aS'09:135155 1 109'
p146
aS'09:177893 0 78'
p147
aS'09:177893 1 107'
p148
aS'09:261230 0 80'
p149
aS'09:261230 1 101'
p150
aS'09:261230 3 90'
p151
aS'09:376480 0 84'
p152
aS'09:376480 1 97'
p153
aS'09:376480 2 90'
p154
aS'09:494917 0 85'
p155
aS'09:494917 1 93'
p156
aS'09:578132 0 87'
p157
asS'name'
p158
S'r1'
p159
ssI2
(dp160
S'data'
p161
(lp162
S'00:110854 1 95'
p163
aS'00:326630 0 88'
p164
aS'00:326630 1 92'
p165
aS'00:411121 0 85'
p166
aS'00:411121 1 90'
p167
aS'00:576302 0 84'
p168
aS'00:743780 1 93'
p169
aS'00:794565 1 95'
p170
aS'00:844063 0 80'
p171
aS'00:894569 0 78'
p172
aS'00:945819 1 97'
p173
aS'00:996024 2 90'
p174
aS'00:996024 3 93'
p175
aS'01:077906 3 90'
p176
aS'01:160504 1 98'
p177
aS'01:212261 1 101'
p178
aS'01:263505 1 102'
p179
aS'01:263505 3 90'
p180
aS'01:345800 0 76'
p181
aS'01:345800 1 109'
p182
aS'01:345800 3 88'
p183
aS'01:461791 2 93'
p184
aS'01:512556 2 95'
p185
aS'01:573851 2 97'
p186
aS'01:629922 0 74'
p187
aS'01:680089 0 73'
p188
aS'01:729773 3 90'
p189
aS'01:780606 2 93'
p190
aS'01:863414 0 71'
p191
aS'01:913392 2 101'
p192
aS'01:962720 0 70'
p193
aS'01:962720 2 102'
p194
aS'02:057308 0 68'
p195
aS'02:113955 0 66'
p196
aS'02:163611 0 65'
p197
aS'02:163611 1 110'
p198
aS'02:163611 3 92'
p199
aS'02:280104 0 54'
p200
aS'02:280104 1 123'
p201
aS'02:280104 2 100'
p202
aS'02:280104 3 93'
p203
aS'02:430417 0 57'
p204
aS'02:430417 1 121'
p205
aS'02:430417 3 104'
p206
aS'02:545636 2 97'
p207
aS'02:545636 3 101'
p208
aS'02:630734 2 92'
p209
aS'02:680556 2 90'
p210
aS'02:731120 3 100'
p211
aS'02:834652 0 54'
p212
aS'02:880177 1 124'
p213
aS'02:931716 3 102'
p214
aS'02:980488 0 53'
p215
aS'02:980488 1 126'
p216
aS'02:980488 3 106'
p217
aS'03:098148 0 48'
p218
aS'03:098148 1 132'
p219
aS'03:179875 0 47'
p220
aS'03:179875 1 133'
p221
aS'03:262840 3 102'
p222
aS'03:314101 1 138'
p223
aS'03:314101 3 92'
p224
aS'03:398142 1 140'
p225
aS'03:398142 3 90'
p226
aS'03:485429 1 141'
p227
aS'03:485429 2 93'
p228
aS'03:485429 3 88'
p229
aS'03:683563 2 95'
p230
aS'03:746776 2 97'
p231
aS'03:746776 3 90'
p232
aS'03:847365 2 100'
p233
aS'03:902292 2 104'
p234
aS'03:952683 0 45'
p235
aS'03:952683 2 107'
p236
aS'04:035987 2 109'
p237
aS'04:182324 2 110'
p238
aS'04:247027 3 92'
p239
aS'04:302823 2 115'
p240
aS'04:302823 3 95'
p241
aS'04:386196 0 47'
p242
aS'04:386196 2 136'
p243
aS'04:386196 3 101'
p244
aS'04:502271 2 110'
p245
aS'04:502271 3 106'
p246
aS'04:619109 3 104'
p247
aS'04:669813 2 112'
p248
aS'04:720183 2 110'
p249
aS'04:720183 3 102'
p250
aS'04:802079 2 109'
p251
aS'04:853449 2 101'
p252
aS'04:902373 2 90'
p253
aS'04:902373 3 98'
p254
aS'04:986476 2 87'
p255
aS'04:986476 3 90'
p256
aS'05:069186 0 45'
p257
aS'05:069186 2 85'
p258
aS'05:153867 0 43'
p259
aS'05:216299 2 84'
p260
aS'05:270902 2 82'
p261
aS'05:320261 1 138'
p262
aS'05:320261 2 79'
p263
aS'05:320261 3 93'
p264
aS'05:436747 0 45'
p265
aS'05:436747 1 136'
p266
aS'05:436747 2 78'
p267
aS'05:436747 3 90'
p268
aS'05:588043 1 131'
p269
aS'05:588043 2 61'
p270
aS'05:588043 3 90'
p271
aS'05:703170 0 43'
p272
aS'05:807438 0 45'
p273
aS'05:865312 2 64'
p274
aS'05:954109 0 43'
p275
aS'06:003873 0 45'
p276
aS'06:054972 0 43'
p277
aS'06:054972 2 76'
p278
aS'06:137779 2 82'
p279
aS'06:187250 0 42'
p280
aS'06:187250 1 129'
p281
aS'06:187250 2 85'
p282
aS'06:187250 3 92'
p283
aS'06:338138 2 90'
p284
aS'06:338138 3 98'
p285
aS'06:421934 2 93'
p286
aS'06:421934 3 101'
p287
aS'06:503198 1 128'
p288
aS'06:503198 2 106'
p289
aS'06:503198 3 102'
p290
aS'06:622045 2 104'
p291
aS'06:622045 3 101'
p292
aS'06:703417 3 98'
p293
aS'06:754973 2 100'
p294
aS'06:754973 3 92'
p295
aS'06:837092 1 126'
p296
aS'06:837092 2 98'
p297
aS'06:837092 3 90'
p298
aS'06:967163 3 93'
p299
aS'07:022235 0 40'
p300
aS'07:072290 0 37'
p301
aS'07:120529 0 34'
p302
aS'07:120529 3 95'
p303
aS'07:204889 0 32'
p304
aS'07:204889 2 92'
p305
aS'07:320939 2 90'
p306
aS'07:403452 3 92'
p307
aS'07:615909 1 124'
p308
aS'07:671499 0 39'
p309
aS'07:671499 1 123'
p310
aS'07:671499 2 93'
p311
aS'07:671499 3 90'
p312
aS'07:821949 0 45'
p313
aS'07:821949 1 120'
p314
aS'08:002583 0 48'
p315
aS'08:056122 0 53'
p316
aS'08:056122 1 116'
p317
aS'08:138658 0 65'
p318
aS'08:138658 1 109'
p319
aS'08:222152 0 80'
p320
aS'08:222152 1 98'
p321
aS'08:306146 0 82'
p322
aS'08:368529 1 97'
p323
aS'08:423456 0 84'
p324
aS'08:423456 1 95'
p325
aS'08:493924 1 93'
p326
aS'08:544806 0 85'
p327
aS'08:544806 1 92'
p328
aS'08:544806 2 90'
p329
aS'08:660824 0 87'
p330
aS'08:660824 3 88'
p331
aS'08:744935 2 90'
p332
aS'08:744935 3 87'
p333
aS'08:827559 3 90'
p334
asS'name'
p335
S'r2'
p336
ssI3
(dp337
S'data'
p338
(lp339
S'00:268410 1 93'
p340
aS'00:465464 0 85'
p341
aS'00:465464 1 95'
p342
aS'00:553138 0 79'
p343
aS'00:553138 1 98'
p344
aS'00:635991 0 65'
p345
aS'00:686106 0 47'
p346
aS'00:686106 1 109'
p347
aS'00:768912 0 53'
p348
aS'00:768912 1 112'
p349
aS'00:768912 3 90'
p350
aS'00:885258 0 62'
p351
aS'00:885258 1 115'
p352
aS'00:968694 0 65'
p353
aS'00:968694 2 95'
p354
aS'01:065993 2 98'
p355
aS'01:118653 2 106'
p356
aS'01:170139 2 110'
p357
aS'01:218733 3 92'
p358
aS'01:269661 2 107'
p359
aS'01:319149 2 104'
p360
aS'01:370881 2 101'
p361
aS'01:420330 2 100'
p362
aS'01:565488 1 116'
p363
aS'01:565488 2 104'
p364
aS'01:653612 2 107'
p365
aS'01:841755 0 62'
p366
aS'01:886724 0 59'
p367
aS'01:886724 2 109'
p368
aS'01:970450 2 115'
p369
aS'02:101555 2 116'
p370
aS'02:153547 2 126'
p371
aS'02:191884 2 137'
p372
aS'02:241033 3 93'
p373
aS'02:374291 3 95'
p374
aS'02:505054 3 97'
p375
aS'02:558499 1 118'
p376
aS'02:558499 2 140'
p377
aS'02:558499 3 101'
p378
aS'02:674604 0 57'
p379
aS'02:674604 2 148'
p380
aS'02:759139 0 56'
p381
aS'02:759139 2 136'
p382
aS'02:759139 3 100'
p383
aS'02:880869 0 59'
p384
aS'02:880869 2 123'
p385
aS'02:959849 1 120'
p386
aS'02:959849 2 121'
p387
aS'03:047267 2 118'
p388
aS'03:097058 2 107'
p389
aS'03:097058 3 98'
p390
aS'03:180799 1 123'
p391
aS'03:180799 2 97'
p392
aS'03:180799 3 93'
p393
aS'03:293222 0 54'
p394
aS'03:293222 1 112'
p395
aS'03:293222 2 90'
p396
aS'03:293222 3 92'
p397
aS'03:447800 1 116'
p398
aS'03:447800 2 85'
p399
aS'03:447800 3 88'
p400
aS'03:564978 1 121'
p401
aS'03:564978 2 80'
p402
aS'03:564978 3 84'
p403
aS'03:682003 0 57'
p404
aS'03:682003 2 78'
p405
aS'03:777414 1 118'
p406
aS'03:882144 1 116'
p407
aS'03:943913 1 115'
p408
aS'03:998288 1 114'
p409
aS'03:998288 3 82'
p410
aS'04:081344 0 53'
p411
aS'04:081344 1 106'
p412
aS'04:081344 2 73'
p413
aS'04:081344 3 80'
p414
aS'04:232480 0 48'
p415
aS'04:232480 2 71'
p416
aS'04:314691 1 109'
p417
aS'04:363271 2 68'
p418
aS'04:427206 1 110'
p419
aS'04:494340 0 51'
p420
aS'04:494340 1 112'
p421
aS'04:583040 2 66'
p422
aS'04:631964 1 114'
p423
aS'04:631964 3 82'
p424
aS'04:714399 3 84'
p425
aS'04:765819 0 53'
p426
aS'04:765819 3 85'
p427
aS'04:849837 0 54'
p428
aS'04:898272 2 68'
p429
aS'04:949386 2 66'
p430
aS'04:998688 2 65'
p431
aS'05:061364 3 87'
p432
aS'05:265849 2 66'
p433
aS'05:265849 3 90'
p434
aS'05:544306 2 71'
p435
aS'05:593502 2 79'
p436
aS'05:644893 2 85'
p437
aS'05:644893 3 90'
p438
aS'05:728068 1 115'
p439
aS'05:728068 2 87'
p440
aS'05:906707 1 116'
p441
aS'06:015690 2 90'
p442
aS'06:061698 0 56'
p443
aS'06:061698 1 118'
p444
aS'06:061698 2 95'
p445
aS'06:061698 3 95'
p446
aS'06:212514 0 79'
p447
aS'06:212514 1 102'
p448
aS'06:212514 3 92'
p449
aS'06:327979 1 101'
p450
aS'06:327979 3 90'
p451
aS'06:412918 0 80'
p452
aS'06:461623 2 92'
p453
aS'06:512970 0 84'
p454
aS'06:512970 1 95'
p455
aS'06:512970 2 90'
p456
aS'06:629103 1 90'
p457
aS'06:977400 0 87'
p458
aS'07:215315 1 93'
p459
asS'name'
p460
S'r3'
p461
ssI4
(dp462
S'data'
p463
(lp464
S'00:012521 1 90'
p465
aS'00:073057 1 93'
p466
aS'00:127810 1 95'
p467
aS'00:314021 0 85'
p468
aS'00:314021 1 97'
p469
aS'00:410671 1 98'
p470
aS'00:493168 1 100'
p471
aS'00:547054 0 65'
p472
aS'00:547054 1 114'
p473
aS'00:631346 0 37'
p474
aS'00:631346 1 123'
p475
aS'00:715209 0 26'
p476
aS'00:715209 1 124'
p477
aS'00:797403 0 16'
p478
aS'00:848663 0 12'
p479
aS'00:848663 1 128'
p480
aS'00:931363 1 129'
p481
aS'00:982188 0 16'
p482
aS'01:031032 0 26'
p483
aS'01:031032 1 131'
p484
aS'01:113144 0 39'
p485
aS'01:113144 1 128'
p486
aS'01:211189 1 129'
p487
aS'01:768804 1 126'
p488
aS'01:815284 0 31'
p489
aS'01:815284 1 120'
p490
aS'01:898658 0 26'
p491
aS'01:898658 1 118'
p492
aS'01:898658 2 88'
p493
aS'02:016584 0 28'
p494
aS'02:016584 1 121'
p495
aS'02:016584 2 87'
p496
aS'02:132694 1 123'
p497
aS'02:132694 2 90'
p498
aS'02:132694 3 90'
p499
aS'02:248420 2 90'
p500
aS'02:300637 2 102'
p501
aS'02:349748 1 124'
p502
aS'02:349748 2 104'
p503
aS'02:349748 3 92'
p504
aS'02:465960 2 107'
p505
aS'02:569894 3 93'
p506
aS'02:615864 3 95'
p507
aS'02:667255 3 97'
p508
aS'02:716420 3 95'
p509
aS'02:766256 3 100'
p510
aS'02:816505 3 106'
p511
aS'02:866618 0 30'
p512
aS'02:866618 3 107'
p513
aS'02:950293 0 31'
p514
aS'02:950293 1 126'
p515
aS'02:950293 2 100'
p516
aS'03:066715 2 90'
p517
aS'03:066715 3 104'
p518
aS'03:205467 3 102'
p519
aS'03:345839 3 104'
p520
aS'03:411948 1 123'
p521
aS'03:467900 3 106'
p522
aS'03:620476 3 107'
p523
aS'03:679450 0 32'
p524
aS'03:734646 2 93'
p525
aS'03:734646 3 114'
p526
aS'03:817586 0 34'
p527
aS'03:817586 3 115'
p528
aS'03:955550 2 95'
p529
aS'03:955550 3 116'
p530
aS'04:035174 1 126'
p531
aS'04:084713 3 109'
p532
aS'04:133756 3 100'
p533
aS'04:183950 3 90'
p534
aS'04:234337 3 90'
p535
aS'04:296842 3 88'
p536
aS'04:350953 1 128'
p537
aS'04:350953 3 85'
p538
aS'04:434289 1 126'
p539
aS'04:434289 3 84'
p540
aS'04:518322 3 82'
p541
aS'04:567270 1 128'
p542
aS'04:567270 2 97'
p543
aS'04:567270 3 84'
p544
aS'04:685966 2 95'
p545
aS'04:685966 3 82'
p546
aS'04:768522 1 126'
p547
aS'04:768522 3 78'
p548
aS'04:851360 1 128'
p549
aS'04:902930 3 76'
p550
aS'04:952225 3 70'
p551
aS'05:083120 1 129'
p552
aS'05:147663 3 68'
p553
aS'05:202081 3 66'
p554
aS'05:251680 2 93'
p555
aS'05:251680 3 64'
p556
aS'05:335377 1 131'
p557
aS'05:335377 2 92'
p558
aS'05:335377 3 51'
p559
aS'05:457482 3 48'
p560
aS'05:506365 3 40'
p561
aS'05:556726 2 90'
p562
aS'05:556726 3 35'
p563
aS'05:694834 3 37'
p564
aS'05:739656 1 132'
p565
aS'05:739656 2 90'
p566
aS'05:739656 3 43'
p567
aS'05:856973 3 51'
p568
aS'05:906128 2 85'
p569
aS'05:906128 3 61'
p570
aS'05:990038 2 84'
p571
aS'06:052565 3 62'
p572
aS'06:106012 2 82'
p573
aS'06:106012 3 65'
p574
aS'06:189758 2 88'
p575
aS'06:189758 3 71'
p576
aS'06:272713 2 90'
p577
aS'06:272713 3 78'
p578
aS'06:523084 2 93'
p579
aS'06:573070 2 95'
p580
aS'06:624917 2 109'
p581
aS'06:624917 3 64'
p582
aS'06:707185 2 118'
p583
aS'06:707185 3 49'
p584
aS'06:791192 3 54'
p585
aS'06:922384 3 56'
p586
aS'06:974317 2 115'
p587
aS'06:974317 3 65'
p588
aS'07:058456 3 73'
p589
aS'07:107770 3 76'
p590
aS'07:158748 3 78'
p591
aS'07:207879 3 79'
p592
aS'07:856781 2 112'
p593
aS'07:856781 3 82'
p594
aS'07:942917 2 100'
p595
aS'07:942917 3 85'
p596
aS'08:036992 2 97'
p597
aS'08:093081 2 90'
p598
aS'08:597607 2 95'
p599
aS'08:597607 3 87'
p600
aS'08:676562 3 84'
p601
aS'08:725831 2 106'
p602
aS'08:725831 3 87'
p603
aS'08:809548 2 107'
p604
aS'08:893657 2 109'
p605
aS'08:941919 2 110'
p606
aS'08:941919 3 84'
p607
aS'09:326092 3 87'
p608
aS'09:377653 2 102'
p609
aS'09:377653 3 90'
p610
aS'09:459391 2 97'
p611
aS'09:510865 3 90'
p612
aS'09:613951 2 102'
p613
aS'09:660514 2 104'
p614
aS'09:756133 2 102'
p615
aS'09:811281 2 95'
p616
aS'09:811281 3 88'
p617
aS'09:893927 1 129'
p618
aS'09:893927 2 82'
p619
aS'09:893927 3 87'
p620
aS'10:011209 2 76'
p621
aS'10:011209 3 85'
p622
aS'10:106473 3 84'
p623
aS'10:172926 3 88'
p624
aS'10:226157 2 85'
p625
aS'10:226157 3 90'
p626
aS'10:309698 2 93'
p627
aS'10:309698 3 88'
p628
aS'10:394539 2 110'
p629
aS'10:394539 3 85'
p630
aS'10:465024 2 95'
p631
aS'10:465024 3 90'
p632
aS'10:547661 2 93'
p633
aS'10:820120 2 104'
p634
aS'10:820120 3 90'
p635
aS'10:898020 2 109'
p636
aS'10:949183 2 100'
p637
aS'10:999934 1 136'
p638
aS'10:999934 2 95'
p639
aS'11:082144 0 39'
p640
aS'11:082144 1 141'
p641
aS'11:177238 1 138'
p642
aS'11:231808 1 136'
p643
aS'11:231808 2 106'
p644
aS'11:231808 3 87'
p645
aS'11:349148 0 28'
p646
aS'11:349148 1 123'
p647
aS'11:349148 2 102'
p648
aS'11:349148 3 90'
p649
aS'11:499964 0 26'
p650
aS'11:499964 1 121'
p651
aS'11:499964 2 100'
p652
aS'11:616312 1 124'
p653
aS'11:616312 2 90'
p654
aS'11:699057 2 90'
p655
aS'11:748587 0 30'
p656
aS'11:799915 0 35'
p657
aS'11:799915 1 126'
p658
aS'11:882414 0 40'
p659
aS'11:933320 0 42'
p660
aS'11:933320 1 123'
p661
aS'12:015906 0 56'
p662
aS'12:015906 1 116'
p663
aS'12:099371 0 59'
p664
aS'12:099371 1 115'
p665
aS'12:215386 1 114'
p666
aS'12:266397 1 112'
p667
aS'12:315543 0 62'
p668
aS'12:315543 1 109'
p669
aS'12:399038 0 68'
p670
aS'12:399038 1 104'
p671
aS'12:482611 0 76'
p672
aS'12:482611 1 97'
p673
aS'12:567575 0 80'
p674
aS'12:567575 1 92'
p675
aS'12:649880 0 84'
p676
aS'12:649880 1 90'
p677
aS'12:733091 0 87'
p678
aS'13:156279 1 93'
p679
asS'name'
p680
S'r4'
p681
ssI5
(dp682
S'data'
p683
(lp684
S'00:110854 1 95'
p685
aS'00:326630 0 88'
p686
aS'00:326630 1 92'
p687
aS'00:411121 0 85'
p688
aS'00:411121 1 90'
p689
aS'00:576302 0 84'
p690
aS'00:743780 1 93'
p691
aS'00:794565 1 95'
p692
aS'00:844063 0 80'
p693
aS'00:894569 0 78'
p694
aS'00:945819 1 97'
p695
aS'00:996024 2 90'
p696
aS'00:996024 3 93'
p697
aS'01:077906 3 90'
p698
aS'01:160504 1 98'
p699
aS'01:212261 1 101'
p700
aS'01:263505 1 102'
p701
aS'01:263505 3 90'
p702
aS'01:345800 0 76'
p703
aS'01:345800 1 109'
p704
aS'01:345800 3 88'
p705
aS'01:461791 2 93'
p706
aS'01:512556 2 95'
p707
aS'01:573851 2 97'
p708
aS'01:629922 0 74'
p709
aS'01:680089 0 73'
p710
aS'01:729773 3 90'
p711
aS'01:780606 2 93'
p712
aS'01:863414 0 71'
p713
aS'01:913392 2 101'
p714
aS'01:962720 0 70'
p715
aS'01:962720 2 102'
p716
aS'02:057308 0 68'
p717
aS'02:113955 0 66'
p718
aS'02:163611 0 65'
p719
aS'02:163611 1 110'
p720
aS'02:163611 3 92'
p721
aS'02:280104 0 54'
p722
aS'02:280104 1 123'
p723
aS'02:280104 2 100'
p724
aS'02:280104 3 93'
p725
aS'02:430417 0 57'
p726
aS'02:430417 1 121'
p727
aS'02:430417 3 104'
p728
aS'02:545636 2 97'
p729
aS'02:545636 3 101'
p730
aS'02:630734 2 92'
p731
aS'02:680556 2 90'
p732
aS'02:731120 3 100'
p733
aS'02:834652 0 54'
p734
aS'02:880177 1 124'
p735
aS'02:931716 3 102'
p736
aS'02:980488 0 53'
p737
aS'02:980488 1 126'
p738
aS'02:980488 3 106'
p739
aS'03:098148 0 48'
p740
aS'03:098148 1 132'
p741
aS'03:179875 0 47'
p742
aS'03:179875 1 133'
p743
aS'03:262840 3 102'
p744
aS'03:314101 1 138'
p745
aS'03:314101 3 92'
p746
aS'03:398142 1 140'
p747
aS'03:398142 3 90'
p748
aS'03:485429 1 141'
p749
aS'03:485429 2 93'
p750
aS'03:485429 3 88'
p751
aS'03:683563 2 95'
p752
aS'03:746776 2 97'
p753
aS'03:746776 3 90'
p754
aS'03:847365 2 100'
p755
aS'03:902292 2 104'
p756
aS'03:952683 0 45'
p757
aS'03:952683 2 107'
p758
aS'04:035987 2 109'
p759
aS'04:182324 2 110'
p760
aS'04:247027 3 92'
p761
aS'04:302823 2 115'
p762
aS'04:302823 3 95'
p763
aS'04:386196 0 47'
p764
aS'04:386196 2 136'
p765
aS'04:386196 3 101'
p766
aS'04:502271 2 110'
p767
aS'04:502271 3 106'
p768
aS'04:619109 3 104'
p769
aS'04:669813 2 112'
p770
aS'04:720183 2 110'
p771
aS'04:720183 3 102'
p772
aS'04:802079 2 109'
p773
aS'04:853449 2 101'
p774
aS'04:902373 2 90'
p775
aS'04:902373 3 98'
p776
aS'04:986476 2 87'
p777
aS'04:986476 3 90'
p778
aS'05:069186 0 45'
p779
aS'05:069186 2 85'
p780
aS'05:153867 0 43'
p781
aS'05:216299 2 84'
p782
aS'05:270902 2 82'
p783
aS'05:320261 1 138'
p784
aS'05:320261 2 79'
p785
aS'05:320261 3 93'
p786
aS'05:436747 0 45'
p787
aS'05:436747 1 136'
p788
aS'05:436747 2 78'
p789
aS'05:436747 3 90'
p790
aS'05:588043 1 131'
p791
aS'05:588043 2 61'
p792
aS'05:588043 3 90'
p793
aS'05:703170 0 43'
p794
aS'05:807438 0 45'
p795
aS'05:865312 2 64'
p796
aS'05:954109 0 43'
p797
aS'06:003873 0 45'
p798
aS'06:054972 0 43'
p799
aS'06:054972 2 76'
p800
aS'06:137779 2 82'
p801
aS'06:187250 0 42'
p802
aS'06:187250 1 129'
p803
aS'06:187250 2 85'
p804
aS'06:187250 3 92'
p805
aS'06:338138 2 90'
p806
aS'06:338138 3 98'
p807
aS'06:421934 2 93'
p808
aS'06:421934 3 101'
p809
aS'06:503198 1 128'
p810
aS'06:503198 2 106'
p811
aS'06:503198 3 102'
p812
aS'06:622045 2 104'
p813
aS'06:622045 3 101'
p814
aS'06:703417 3 98'
p815
aS'06:754973 2 100'
p816
aS'06:754973 3 92'
p817
aS'06:837092 1 126'
p818
aS'06:837092 2 98'
p819
aS'06:837092 3 90'
p820
aS'06:967163 3 93'
p821
aS'07:022235 0 40'
p822
aS'07:072290 0 37'
p823
aS'07:120529 0 34'
p824
aS'07:120529 3 95'
p825
aS'07:204889 0 32'
p826
aS'07:204889 2 92'
p827
aS'07:320939 2 90'
p828
aS'07:403452 3 92'
p829
aS'07:615909 1 124'
p830
aS'07:671499 0 39'
p831
aS'07:671499 1 123'
p832
aS'07:671499 2 93'
p833
aS'07:671499 3 90'
p834
aS'07:821949 0 45'
p835
aS'07:821949 1 120'
p836
aS'08:002583 0 48'
p837
aS'08:056122 0 53'
p838
aS'08:056122 1 116'
p839
aS'08:138658 0 65'
p840
aS'08:138658 1 109'
p841
aS'08:222152 0 80'
p842
aS'08:222152 1 98'
p843
aS'08:306146 0 82'
p844
aS'08:368529 1 97'
p845
aS'08:423456 0 84'
p846
aS'08:423456 1 95'
p847
aS'08:493924 1 93'
p848
aS'08:544806 0 85'
p849
aS'08:544806 1 92'
p850
aS'08:544806 2 90'
p851
aS'08:660824 0 87'
p852
aS'08:660824 3 88'
p853
aS'08:744935 2 90'
p854
aS'08:744935 3 87'
p855
aS'08:827559 3 90'
p856
asS'name'
p857
S'r5'
p858
ssI6
(dp859
S'data'
p860
(lp861
S'00:371450 2 97'
p862
aS'00:424069 2 95'
p863
aS'00:703335 2 93'
p864
aS'00:757896 0 85'
p865
aS'00:757896 2 90'
p866
aS'00:842200 0 90'
p867
aS'00:890873 0 102'
p868
aS'00:890873 3 93'
p869
aS'00:975545 0 104'
p870
aS'00:975545 1 92'
p871
aS'01:056731 3 95'
p872
aS'01:141105 3 90'
p873
aS'01:191564 0 101'
p874
aS'01:191564 1 90'
p875
aS'01:191564 2 95'
p876
aS'01:191564 3 90'
p877
aS'01:341204 0 92'
p878
aS'01:341204 2 112'
p879
aS'01:341204 3 84'
p880
aS'01:457242 0 90'
p881
aS'01:457242 2 114'
p882
aS'01:457242 3 85'
p883
aS'01:575508 1 95'
p884
aS'01:575508 2 138'
p885
aS'01:575508 3 74'
p886
aS'01:692250 0 88'
p887
aS'01:692250 3 80'
p888
aS'01:775423 3 84'
p889
aS'01:825940 2 140'
p890
aS'01:825940 3 82'
p891
aS'01:908888 1 90'
p892
aS'01:959352 2 129'
p893
aS'01:959352 3 90'
p894
aS'02:041937 0 90'
p895
aS'02:041937 1 90'
p896
aS'02:041937 2 107'
p897
aS'02:041937 3 92'
p898
aS'02:192936 0 88'
p899
aS'02:192936 2 115'
p900
aS'02:192936 3 95'
p901
aS'02:307908 0 70'
p902
aS'02:307908 1 93'
p903
aS'02:307908 2 116'
p904
aS'02:426531 0 65'
p905
aS'02:426531 1 95'
p906
aS'02:426531 2 102'
p907
aS'02:426531 3 92'
p908
aS'02:576911 0 54'
p909
aS'02:576911 1 102'
p910
aS'02:576911 2 95'
p911
aS'02:576911 3 95'
p912
aS'02:725577 0 48'
p913
aS'02:725577 1 104'
p914
aS'02:725577 2 90'
p915
aS'02:725577 3 93'
p916
aS'02:876556 1 106'
p917
aS'02:876556 2 87'
p918
aS'02:876556 3 90'
p919
aS'02:992643 0 51'
p920
aS'02:992643 1 107'
p921
aS'02:992643 2 74'
p922
aS'03:108801 2 70'
p923
aS'03:192211 2 68'
p924
aS'03:242547 2 66'
p925
aS'03:325960 2 65'
p926
aS'03:375498 2 59'
p927
aS'03:375498 3 93'
p928
aS'03:459530 2 48'
p929
aS'03:589864 1 110'
p930
aS'03:589864 3 92'
p931
aS'03:675845 0 53'
p932
aS'03:675845 1 112'
p933
aS'03:675845 3 90'
p934
aS'03:793299 0 57'
p935
aS'03:793299 1 123'
p936
aS'03:877244 1 124'
p937
aS'03:877244 2 51'
p938
aS'03:960352 1 126'
p939
aS'03:960352 2 80'
p940
aS'03:960352 3 90'
p941
aS'04:076412 0 54'
p942
aS'04:076412 2 84'
p943
aS'04:160662 0 53'
p944
aS'04:160662 2 85'
p945
aS'04:243907 1 128'
p946
aS'04:243907 2 88'
p947
aS'04:327565 1 132'
p948
aS'04:327565 2 90'
p949
aS'04:411648 0 49'
p950
aS'04:411648 1 136'
p951
aS'04:411648 2 93'
p952
aS'04:411648 3 88'
p953
aS'04:565239 1 138'
p954
aS'04:565239 2 112'
p955
aS'04:565239 3 90'
p956
aS'04:682937 2 120'
p957
aS'04:732884 2 124'
p958
aS'04:782036 2 128'
p959
aS'04:833000 2 129'
p960
aS'04:883185 1 133'
p961
aS'04:883185 2 136'
p962
aS'04:966083 1 131'
p963
aS'04:966083 2 149'
p964
aS'05:049074 1 123'
p965
aS'05:215398 0 48'
p966
aS'05:265579 1 126'
p967
aS'05:316611 2 145'
p968
aS'05:365693 0 47'
p969
aS'05:365693 1 128'
p970
aS'05:365693 2 143'
p971
aS'05:483464 0 39'
p972
aS'05:483464 1 138'
p973
aS'05:483464 2 123'
p974
aS'05:483464 3 95'
p975
aS'05:631681 0 34'
p976
aS'05:631681 1 141'
p977
aS'05:631681 2 100'
p978
aS'05:631681 3 92'
p979
aS'05:784042 2 92'
p980
aS'05:784042 3 90'
p981
aS'05:866161 2 90'
p982
aS'05:916672 2 84'
p983
aS'05:977973 2 82'
p984
aS'06:032806 1 136'
p985
aS'06:032806 2 84'
p986
aS'06:116751 0 45'
p987
aS'06:116751 1 120'
p988
aS'06:116751 2 85'
p989
aS'06:233501 0 53'
p990
aS'06:233501 1 115'
p991
aS'06:316605 0 90'
p992
aS'06:316605 1 90'
p993
aS'06:316605 2 90'
p994
asS'name'
p995
S'r6'
p996
ssI7
(dp997
S'data'
p998
(lp999
S'00:526639 1 97'
p1000
aS'00:577640 0 71'
p1001
aS'00:577640 1 116'
p1002
aS'00:661700 0 56'
p1003
aS'00:661700 1 123'
p1004
aS'00:743660 0 28'
p1005
aS'00:743660 1 149'
p1006
aS'00:828508 0 34'
p1007
aS'00:828508 1 143'
p1008
aS'00:912322 0 39'
p1009
aS'00:912322 1 138'
p1010
aS'00:994515 0 40'
p1011
aS'01:757429 1 141'
p1012
aS'01:931130 3 88'
p1013
aS'01:979431 3 87'
p1014
aS'02:082509 2 87'
p1015
aS'02:130222 2 84'
p1016
aS'02:130222 3 85'
p1017
aS'02:311055 2 82'
p1018
aS'02:362238 2 80'
p1019
aS'02:412943 3 88'
p1020
aS'02:462209 2 90'
p1021
aS'02:462209 3 90'
p1022
aS'02:545649 2 90'
p1023
aS'02:650352 2 92'
p1024
aS'02:709036 2 93'
p1025
aS'02:763674 2 98'
p1026
aS'02:763674 3 90'
p1027
aS'02:846472 2 107'
p1028
aS'02:896830 2 114'
p1029
aS'02:946430 2 121'
p1030
aS'03:077135 3 92'
p1031
aS'03:130065 3 95'
p1032
aS'03:179963 3 97'
p1033
aS'03:230164 3 98'
p1034
aS'03:279152 3 106'
p1035
aS'03:330704 2 115'
p1036
aS'03:330704 3 107'
p1037
aS'03:413763 3 110'
p1038
aS'03:464048 3 114'
p1039
aS'03:512956 2 118'
p1040
aS'03:512956 3 115'
p1041
aS'03:625466 3 112'
p1042
aS'03:680940 3 109'
p1043
aS'03:731051 3 106'
p1044
aS'03:781137 2 114'
p1045
aS'03:781137 3 98'
p1046
aS'03:863769 2 104'
p1047
aS'03:863769 3 90'
p1048
aS'03:947617 1 143'
p1049
aS'03:947617 2 101'
p1050
aS'03:947617 3 76'
p1051
aS'04:064736 1 146'
p1052
aS'04:064736 2 98'
p1053
aS'04:064736 3 64'
p1054
aS'04:180658 2 97'
p1055
aS'04:180658 3 74'
p1056
aS'04:265366 2 90'
p1057
aS'04:265366 3 80'
p1058
aS'04:349126 2 90'
p1059
aS'04:349126 3 82'
p1060
aS'04:430452 2 82'
p1061
aS'04:430452 3 87'
p1062
aS'04:527161 2 84'
p1063
aS'04:527161 3 88'
p1064
aS'04:615054 2 90'
p1065
aS'04:615054 3 90'
p1066
aS'04:793646 2 88'
p1067
aS'04:847097 2 78'
p1068
aS'04:897588 2 71'
p1069
aS'04:949168 2 65'
p1070
aS'04:998028 2 56'
p1071
aS'05:235231 2 53'
p1072
aS'05:285229 2 48'
p1073
aS'05:335249 2 34'
p1074
aS'05:386316 2 32'
p1075
aS'05:519884 2 37'
p1076
aS'05:569168 2 62'
p1077
aS'05:569168 3 84'
p1078
aS'05:652306 2 80'
p1079
aS'05:703825 2 88'
p1080
aS'05:703825 3 80'
p1081
aS'05:787542 2 92'
p1082
aS'05:787542 3 84'
p1083
aS'05:874934 2 93'
p1084
aS'05:874934 3 88'
p1085
aS'05:957305 2 100'
p1086
aS'05:957305 3 90'
p1087
aS'06:042337 2 114'
p1088
aS'06:042337 3 90'
p1089
aS'06:125232 2 115'
p1090
aS'06:233445 2 116'
p1091
aS'06:291990 2 132'
p1092
aS'06:343102 2 137'
p1093
aS'06:343102 3 88'
p1094
aS'06:458803 3 90'
p1095
aS'06:584137 2 138'
p1096
aS'06:638697 2 140'
p1097
aS'06:741631 2 141'
p1098
aS'06:787774 2 145'
p1099
aS'06:836546 2 146'
p1100
aS'06:920997 3 93'
p1101
aS'06:971107 3 101'
p1102
aS'07:020991 3 107'
p1103
aS'07:071891 2 138'
p1104
aS'07:071891 3 112'
p1105
aS'07:154318 2 131'
p1106
aS'07:154318 3 118'
p1107
aS'07:250394 3 116'
p1108
aS'07:303886 3 114'
p1109
aS'07:355817 3 106'
p1110
aS'07:403619 3 104'
p1111
aS'07:454549 3 101'
p1112
aS'07:505967 3 98'
p1113
aS'07:650342 2 124'
p1114
aS'07:704639 2 101'
p1115
aS'07:704639 3 97'
p1116
aS'07:789336 2 95'
p1117
aS'07:789336 3 98'
p1118
aS'07:871615 2 90'
p1119
aS'07:871615 3 100'
p1120
aS'07:955228 1 143'
p1121
aS'07:955228 2 88'
p1122
aS'07:955228 3 101'
p1123
aS'08:071875 2 73'
p1124
aS'08:071875 3 106'
p1125
aS'08:154762 2 53'
p1126
aS'08:154762 3 109'
p1127
aS'08:238703 2 59'
p1128
aS'08:238703 3 107'
p1129
aS'08:321316 2 80'
p1130
aS'08:321316 3 92'
p1131
aS'08:405173 2 82'
p1132
aS'08:455382 2 85'
p1133
aS'08:455382 3 90'
p1134
aS'08:540046 1 141'
p1135
aS'08:540046 2 88'
p1136
aS'08:621219 0 48'
p1137
aS'08:621219 1 124'
p1138
aS'08:706404 0 51'
p1139
aS'08:706404 1 121'
p1140
aS'08:706404 2 87'
p1141
aS'08:822712 0 57'
p1142
aS'08:822712 1 109'
p1143
aS'08:822712 2 90'
p1144
aS'08:940581 0 61'
p1145
aS'08:940581 1 107'
p1146
aS'09:035400 0 62'
p1147
aS'09:171494 1 110'
p1148
aS'09:222823 1 112'
p1149
aS'09:272016 0 59'
p1150
aS'09:272016 1 115'
p1151
aS'09:356231 0 57'
p1152
aS'09:356231 1 116'
p1153
aS'09:440360 1 120'
p1154
aS'09:490088 0 56'
p1155
aS'09:490088 1 121'
p1156
aS'09:572151 0 54'
p1157
aS'09:572151 1 123'
p1158
aS'09:572151 3 95'
p1159
aS'09:689496 0 53'
p1160
aS'09:689496 2 93'
p1161
aS'09:689496 3 100'
p1162
aS'09:807600 1 124'
p1163
aS'09:807600 3 97'
p1164
aS'09:890541 0 51'
p1165
aS'09:890541 3 92'
p1166
aS'09:974260 0 47'
p1167
aS'09:974260 1 128'
p1168
aS'10:057341 3 95'
p1169
aS'10:118779 3 97'
p1170
aS'10:177367 1 129'
p1171
aS'10:177367 3 100'
p1172
aS'10:293361 1 126'
p1173
aS'10:344023 1 123'
p1174
aS'10:344023 3 97'
p1175
aS'10:509262 1 121'
p1176
aS'10:562132 0 49'
p1177
aS'10:562132 1 116'
p1178
aS'10:646328 3 95'
p1179
aS'10:726556 3 93'
p1180
aS'10:778633 1 115'
p1181
aS'10:829145 0 51'
p1182
aS'10:879269 1 114'
p1183
aS'10:929347 0 53'
p1184
aS'10:929347 1 112'
p1185
aS'11:011601 0 56'
p1186
aS'11:011601 1 110'
p1187
aS'11:011601 3 90'
p1188
aS'11:129725 0 57'
p1189
aS'11:129725 1 109'
p1190
aS'11:211513 0 59'
p1191
aS'11:262212 0 62'
p1192
aS'11:262212 1 107'
p1193
aS'11:346115 0 66'
p1194
aS'11:346115 1 106'
p1195
aS'11:429580 0 68'
p1196
aS'11:429580 1 104'
p1197
aS'11:512065 0 71'
p1198
aS'11:512065 1 101'
p1199
aS'11:595297 0 74'
p1200
aS'11:595297 1 98'
p1201
aS'11:678644 1 95'
p1202
aS'11:730749 0 78'
p1203
aS'11:730749 1 93'
p1204
aS'11:812936 0 79'
p1205
aS'11:812936 1 90'
p1206
aS'11:993274 0 80'
p1207
aS'12:047050 0 82'
p1208
asS'name'
p1209
S'r7'
p1210
ssI8
(dp1211
S'data'
p1212
(lp1213
S'00:567572 1 90'
p1214
aS'00:635618 3 88'
p1215
aS'00:688340 3 84'
p1216
aS'00:738484 3 79'
p1217
aS'00:790467 3 76'
p1218
aS'01:019887 3 79'
p1219
aS'01:073695 0 79'
p1220
aS'01:122657 1 87'
p1221
aS'01:172934 1 84'
p1222
aS'01:172934 3 80'
p1223
aS'01:256812 2 95'
p1224
aS'01:360756 1 82'
p1225
aS'01:360756 3 78'
p1226
aS'01:439804 1 80'
p1227
aS'01:439804 3 76'
p1228
aS'01:604565 3 79'
p1229
aS'01:657184 3 84'
p1230
aS'01:707394 0 78'
p1231
aS'01:707394 3 87'
p1232
aS'01:790342 0 76'
p1233
aS'01:790342 1 90'
p1234
aS'01:790342 2 97'
p1235
aS'01:790342 3 88'
p1236
aS'01:941276 1 90'
p1237
aS'01:941276 2 95'
p1238
aS'02:025118 1 97'
p1239
aS'02:025118 3 90'
p1240
aS'02:106596 1 102'
p1241
aS'02:158232 0 73'
p1242
aS'02:158232 1 109'
p1243
aS'02:240877 0 66'
p1244
aS'02:240877 1 110'
p1245
aS'02:324416 0 65'
p1246
aS'02:324416 1 115'
p1247
aS'02:324416 2 97'
p1248
aS'02:441946 1 112'
p1249
aS'02:441946 2 95'
p1250
aS'02:441946 3 85'
p1251
aS'02:558132 3 76'
p1252
aS'02:606552 0 64'
p1253
aS'02:670593 3 74'
p1254
aS'02:756726 2 97'
p1255
aS'02:807709 0 61'
p1256
aS'02:858485 0 57'
p1257
aS'02:858485 1 110'
p1258
aS'02:858485 2 98'
p1259
aS'02:974587 0 54'
p1260
aS'02:974587 2 101'
p1261
aS'02:974587 3 73'
p1262
aS'03:090695 0 48'
p1263
aS'03:090695 2 102'
p1264
aS'03:090695 3 71'
p1265
aS'03:195167 0 42'
p1266
aS'03:195167 1 114'
p1267
aS'03:195167 2 106'
p1268
aS'03:312834 1 115'
p1269
aS'03:312834 2 112'
p1270
aS'03:395788 0 40'
p1271
aS'03:395788 2 115'
p1272
aS'03:478578 0 39'
p1273
aS'03:478578 3 74'
p1274
aS'03:561972 0 37'
p1275
aS'03:561972 3 76'
p1276
aS'03:646341 1 116'
p1277
aS'03:646341 2 116'
p1278
aS'03:646341 3 79'
p1279
aS'03:763266 2 109'
p1280
aS'03:763266 3 88'
p1281
aS'03:846894 0 31'
p1282
aS'03:846894 1 112'
p1283
aS'03:846894 2 104'
p1284
aS'03:846894 3 90'
p1285
aS'03:995783 0 30'
p1286
aS'03:995783 2 102'
p1287
aS'03:995783 3 90'
p1288
aS'04:112986 0 28'
p1289
aS'04:112986 2 101'
p1290
aS'04:112986 3 92'
p1291
aS'04:231240 0 26'
p1292
aS'04:231240 1 115'
p1293
aS'04:231240 3 93'
p1294
aS'04:346511 2 100'
p1295
aS'04:346511 3 98'
p1296
aS'04:431103 2 102'
p1297
aS'04:431103 3 107'
p1298
aS'04:514197 1 116'
p1299
aS'04:514197 3 109'
p1300
aS'04:597034 0 25'
p1301
aS'04:647861 1 118'
p1302
aS'04:647861 3 107'
p1303
aS'04:731642 3 88'
p1304
aS'04:780669 3 74'
p1305
aS'04:831916 3 73'
p1306
aS'04:879694 3 66'
p1307
aS'04:931323 3 68'
p1308
aS'04:993661 3 70'
p1309
aS'05:046756 3 71'
p1310
aS'05:126605 2 106'
p1311
aS'05:180651 0 28'
p1312
aS'05:180651 2 110'
p1313
aS'05:180651 3 65'
p1314
aS'05:298063 2 112'
p1315
aS'05:298063 3 62'
p1316
aS'05:380415 2 115'
p1317
aS'05:444257 3 65'
p1318
aS'05:499141 3 66'
p1319
aS'05:547870 3 68'
p1320
aS'05:598585 2 116'
p1321
aS'05:647645 3 66'
p1322
aS'05:697010 2 120'
p1323
aS'05:802575 2 121'
p1324
aS'05:847872 1 120'
p1325
aS'05:847872 2 128'
p1326
aS'05:847872 3 65'
p1327
aS'05:964791 1 118'
p1328
aS'05:964791 2 133'
p1329
aS'05:964791 3 64'
p1330
aS'06:179014 3 66'
p1331
aS'06:231116 3 71'
p1332
aS'06:282163 3 76'
p1333
aS'06:330618 2 129'
p1334
aS'06:330618 3 79'
p1335
aS'06:414498 2 115'
p1336
aS'06:414498 3 90'
p1337
aS'06:499179 1 120'
p1338
aS'06:499179 2 112'
p1339
aS'06:499179 3 100'
p1340
aS'06:616071 1 118'
p1341
aS'06:616071 3 101'
p1342
aS'06:699529 3 106'
p1343
aS'06:866150 1 116'
p1344
aS'06:927826 3 102'
p1345
aS'06:981518 3 90'
p1346
aS'07:033484 2 114'
p1347
aS'07:033484 3 78'
p1348
aS'07:115435 2 115'
p1349
aS'07:115435 3 71'
p1350
aS'07:198005 2 116'
p1351
aS'07:198005 3 74'
p1352
aS'07:283480 2 118'
p1353
aS'07:283480 3 76'
p1354
aS'07:364721 2 115'
p1355
aS'07:364721 3 85'
p1356
aS'07:448500 2 107'
p1357
aS'07:448500 3 90'
p1358
aS'07:532603 2 106'
p1359
aS'07:627946 2 104'
p1360
aS'07:682726 2 98'
p1361
aS'07:731770 2 90'
p1362
aS'07:815903 3 87'
p1363
aS'07:949632 2 90'
p1364
aS'07:998679 3 85'
p1365
aS'08:049434 2 89'
p1366
aS'08:099927 2 88'
p1367
aS'08:099927 3 82'
p1368
aS'08:170437 3 76'
p1369
aS'08:219973 3 74'
p1370
aS'08:270301 3 73'
p1371
aS'08:373736 3 71'
p1372
aS'08:425268 1 118'
p1373
aS'08:425268 3 68'
p1374
aS'08:503736 3 57'
p1375
aS'08:555293 2 86'
p1376
aS'08:555293 3 48'
p1377
aS'08:641920 3 47'
p1378
aS'08:687779 1 120'
p1379
aS'08:687779 2 85'
p1380
aS'08:687779 3 45'
p1381
aS'08:810553 1 118'
p1382
aS'08:810553 2 83'
p1383
aS'08:889191 1 120'
p1384
aS'08:889191 2 79'
p1385
aS'08:889191 3 48'
p1386
aS'09:006213 2 73'
p1387
aS'09:006213 3 57'
p1388
aS'09:104956 1 121'
p1389
aS'09:159639 1 120'
p1390
aS'09:159639 3 59'
p1391
aS'09:243311 2 71'
p1392
aS'09:369549 2 70'
p1393
aS'09:455467 2 68'
p1394
aS'09:505268 1 121'
p1395
aS'09:505268 2 66'
p1396
aS'09:505268 3 61'
p1397
aS'09:622163 3 64'
p1398
aS'09:672941 2 65'
p1399
aS'09:672941 3 70'
p1400
aS'09:756646 2 64'
p1401
aS'09:756646 3 78'
p1402
aS'09:852394 2 62'
p1403
aS'10:000922 3 79'
p1404
aS'10:138455 2 65'
p1405
aS'10:138455 3 76'
p1406
aS'10:223505 2 71'
p1407
aS'10:223505 3 61'
p1408
aS'10:306367 2 73'
p1409
aS'10:306367 3 54'
p1410
aS'10:388902 3 49'
p1411
aS'10:521427 2 70'
p1412
aS'10:572670 2 65'
p1413
aS'10:572670 3 51'
p1414
aS'10:655960 2 61'
p1415
aS'10:706820 2 57'
p1416
aS'10:767958 2 56'
p1417
aS'10:823213 3 53'
p1418
aS'10:873241 2 53'
p1419
aS'10:922613 2 50'
p1420
aS'10:922613 3 56'
p1421
aS'11:006712 2 44'
p1422
aS'11:006712 3 59'
p1423
aS'11:089157 2 38'
p1424
aS'11:320277 2 37'
p1425
aS'11:384826 2 36'
p1426
aS'11:439977 2 35'
p1427
aS'11:439977 3 61'
p1428
aS'11:523456 2 32'
p1429
aS'11:523456 3 62'
p1430
aS'11:711077 3 64'
p1431
aS'11:959042 0 25'
p1432
aS'12:006731 2 36'
p1433
aS'12:057326 2 37'
p1434
aS'12:107686 2 42'
p1435
aS'12:157104 2 45'
p1436
aS'12:209058 2 49'
p1437
aS'12:256873 2 54'
p1438
aS'12:307715 0 28'
p1439
aS'12:307715 2 68'
p1440
aS'12:307715 3 65'
p1441
aS'12:424265 1 118'
p1442
aS'12:424265 2 74'
p1443
aS'12:424265 3 66'
p1444
aS'12:541272 0 30'
p1445
aS'12:541272 1 114'
p1446
aS'12:541272 2 78'
p1447
aS'12:541272 3 68'
p1448
aS'12:691670 0 32'
p1449
aS'12:691670 1 109'
p1450
aS'12:691670 2 80'
p1451
aS'12:691670 3 74'
p1452
aS'12:840955 0 39'
p1453
aS'12:840955 1 106'
p1454
aS'12:840955 2 83'
p1455
aS'12:840955 3 76'
p1456
aS'12:990765 0 53'
p1457
aS'12:990765 1 95'
p1458
aS'12:990765 2 86'
p1459
aS'12:990765 3 80'
p1460
aS'13:145371 0 56'
p1461
aS'13:145371 2 90'
p1462
aS'13:145371 3 84'
p1463
aS'13:263875 0 59'
p1464
aS'13:263875 3 87'
p1465
aS'13:347656 0 68'
p1466
aS'13:347656 1 98'
p1467
aS'13:347656 2 90'
p1468
aS'13:347656 3 90'
p1469
aS'13:495737 0 71'
p1470
aS'13:495737 1 95'
p1471
aS'13:495737 3 90'
p1472
aS'13:613471 0 73'
p1473
aS'13:760796 0 74'
p1474
aS'13:760796 1 93'
p1475
aS'13:847158 0 79'
p1476
aS'13:847158 1 92'
p1477
aS'13:964581 1 90'
p1478
aS'14:012443 0 80'
p1479
aS'14:012443 2 107'
p1480
aS'14:012443 3 92'
p1481
aS'14:131128 2 104'
p1482
aS'14:131128 3 95'
p1483
aS'14:213203 2 100'
p1484
aS'14:213203 3 90'
p1485
asS'name'
p1486
S'r8'
p1487
ss.